; Function Attrs: mustprogress uwtable
define hidden void @_ZN23simple_check_sat_result14get_model_coreER3refI5modelE(ptr nocapture noundef nonnull readonly align 8 dereferenceable(160) %this, ptr nocapture noundef nonnull align 8 dereferenceable(8) %m) unnamed_addr #3 align 2 {
entry:
  %m_status = getelementptr inbounds i8, ptr %this, i64 52
  %0 = load i32, ptr %m_status, align 4
  %cmp.not = icmp eq i32 %0, -1
  br i1 %cmp.not, label %if.else, label %if.then

if.then:                                          ; preds = %entry
  %m_model = getelementptr inbounds i8, ptr %this, i64 88
  %1 = load ptr, ptr %m_model, align 8
  %tobool.not.i.i = icmp eq ptr %1, null
  br i1 %tobool.not.i.i, label %_ZN3refI5modelE7inc_refEv.exit.i, label %if.then.i.i

if.then.i.i:                                      ; preds = %if.then
  %m_ref_count.i.i.i = getelementptr inbounds i8, ptr %1, i64 16
  %2 = load i32, ptr %m_ref_count.i.i.i, align 8
  %inc.i.i.i = add i32 %2, 1
  store i32 %inc.i.i.i, ptr %m_ref_count.i.i.i, align 8
  br label %_ZN3refI5modelE7inc_refEv.exit.i

_ZN3refI5modelE7inc_refEv.exit.i:                 ; preds = %if.then.i.i, %if.then
  %3 = load ptr, ptr %m, align 8
  %tobool.not.i2.i = icmp eq ptr %3, null
  br i1 %tobool.not.i2.i, label %_ZN3refI5modelEaSERS1_.exit, label %if.then.i3.i

if.then.i3.i:                                     ; preds = %_ZN3refI5modelE7inc_refEv.exit.i
  %m_ref_count.i.i4.i = getelementptr inbounds i8, ptr %3, i64 16
  %4 = load i32, ptr %m_ref_count.i.i4.i, align 8
  %dec.i.i.i = add i32 %4, -1
  store i32 %dec.i.i.i, ptr %m_ref_count.i.i4.i, align 8
  %cmp.i.i.i = icmp eq i32 %dec.i.i.i, 0
  br i1 %cmp.i.i.i, label %if.then.i.i.i, label %_ZN3refI5modelEaSERS1_.exit

if.then.i.i.i:                                    ; preds = %if.then.i3.i
  %vtable.i.i.i.i = load ptr, ptr %3, align 8
  %5 = load ptr, ptr %vtable.i.i.i.i, align 8
  tail call void %5(ptr noundef nonnull align 8 dereferenceable(96) %3) #14
  tail call void @_ZN6memory10deallocateEPv(ptr noundef nonnull %3)
  br label %_ZN3refI5modelEaSERS1_.exit

_ZN3refI5modelEaSERS1_.exit:                      ; preds = %_ZN3refI5modelE7inc_refEv.exit.i, %if.then.i3.i, %if.then.i.i.i
  %6 = load ptr, ptr %m_model, align 8
  br label %if.end

if.else:                                          ; preds = %entry
  %7 = load ptr, ptr %m, align 8
  %tobool.not.i.i2 = icmp eq ptr %7, null
  br i1 %tobool.not.i.i2, label %if.end, label %if.then.i.i3

if.then.i.i3:                                     ; preds = %if.else
  %m_ref_count.i.i.i4 = getelementptr inbounds i8, ptr %7, i64 16
  %8 = load i32, ptr %m_ref_count.i.i.i4, align 8
  %dec.i.i.i5 = add i32 %8, -1
  store i32 %dec.i.i.i5, ptr %m_ref_count.i.i.i4, align 8
  %cmp.i.i.i6 = icmp eq i32 %dec.i.i.i5, 0
  br i1 %cmp.i.i.i6, label %if.then.i.i.i7, label %if.end

if.then.i.i.i7:                                   ; preds = %if.then.i.i3
  %vtable.i.i.i.i8 = load ptr, ptr %7, align 8
  %9 = load ptr, ptr %vtable.i.i.i.i8, align 8
  tail call void %9(ptr noundef nonnull align 8 dereferenceable(96) %7) #14
  tail call void @_ZN6memory10deallocateEPv(ptr noundef nonnull %7)
  br label %if.end

if.end:                                           ; preds = %if.then.i.i.i7, %if.then.i.i3, %if.else, %_ZN3refI5modelEaSERS1_.exit
  %storemerge = phi ptr [ %6, %_ZN3refI5modelEaSERS1_.exit ], [ null, %if.else ], [ null, %if.then.i.i3 ], [ null, %if.then.i.i.i7 ]
  store ptr %storemerge, ptr %m, align 8
  ret void
}